target datalayout = "e-m:e-p270:32:32-p271:32:32-p272:64:64-i64:64-i128:128-f80:128-n8:16:32:64-S128"
target triple = "x86_64-pc-linux-gnu"

%union.pthread_cond_t = type { %struct.__pthread_cond_s }
%struct.__pthread_cond_s = type { %union.__atomic_wide_counter, %union.__atomic_wide_counter, [2 x i32], [2 x i32], i32, i32, [2 x i32] }
%union.__atomic_wide_counter = type { i64 }
%union.pthread_mutex_t = type { %struct.__pthread_mutex_s }
%struct.__pthread_mutex_s = type { i32, i32, i32, i32, i32, i16, i16, %struct.__pthread_internal_list }
%struct.__pthread_internal_list = type { ptr, ptr }
%struct.stepd_step_rec_t = type { ptr, ptr, i32, %union.pthread_cond_t, %union.pthread_mutex_t, %struct.slurm_step_id_msg, i32, i32, i32, i32, i32, i32, ptr, ptr, i32, i32, ptr, i32, i32, i32, i32, i32, ptr, ptr, ptr, ptr, i32, i32, i64, i64, i16, i32, ptr, ptr, ptr, i32, ptr, i32, ptr, i32, ptr, i16, i32, i32, i32, ptr, i32, ptr, ptr, ptr, ptr, i32, i32, ptr, ptr, i8, i8, i8, i64, i32, ptr, ptr, ptr, ptr, ptr, ptr, ptr, ptr, ptr, ptr, i32, i32, ptr, i8, %union.pthread_cond_t, %union.pthread_mutex_t, i64, ptr, i32, i32, i32, ptr, i64, ptr, ptr, i8, ptr, i16, ptr, ptr, ptr, ptr, ptr, ptr, i64, ptr, i64, ptr, i16, i8, i16, i32, ptr, i16, ptr, ptr, i16, ptr, ptr, ptr, i8 }
%struct.slurm_step_id_msg = type { i64, i32, i32, i32 }
%struct.priv_state = type { i32, i32, ptr, i32 }

@.str.150 = private unnamed_addr constant [25 x i8] c"_become_user seteuid: %m\00", align 1
@.str.151 = private unnamed_addr constant [25 x i8] c"_become_user setegid: %m\00", align 1
@.str.152 = private unnamed_addr constant [13 x i8] c"setregid: %m\00", align 1
@.str.153 = private unnamed_addr constant [13 x i8] c"setreuid: %m\00", align 1

; Function Attrs: nounwind uwtable
define internal i32 @_become_user(ptr noundef %0, ptr noundef %1) #0 {
  %3 = alloca i32, align 4
  %4 = alloca ptr, align 8
  %5 = alloca ptr, align 8
  store ptr %0, ptr %4, align 8
  store ptr %1, ptr %5, align 8
  %6 = call i32 @geteuid() #12
  %7 = load ptr, ptr %5, align 8
  %8 = getelementptr inbounds nuw %struct.priv_state, ptr %7, i32 0, i32 0
  %9 = load i32, ptr %8, align 8
  %10 = icmp eq i32 %6, %9
  br i1 %10, label %11, label %12

11:                                               ; preds = %2
  store i32 0, ptr %3, align 4
  br label %51

12:                                               ; preds = %2
  %13 = load ptr, ptr %5, align 8
  %14 = getelementptr inbounds nuw %struct.priv_state, ptr %13, i32 0, i32 0
  %15 = load i32, ptr %14, align 8
  %16 = call i32 @seteuid(i32 noundef %15) #12
  %17 = icmp slt i32 %16, 0
  br i1 %17, label %18, label %20

18:                                               ; preds = %12
  %19 = call i32 (ptr, ...) @error(ptr noundef @.str.150)
  store i32 -1, ptr %3, align 4
  br label %51

20:                                               ; preds = %12
  %21 = load ptr, ptr %5, align 8
  %22 = getelementptr inbounds nuw %struct.priv_state, ptr %21, i32 0, i32 1
  %23 = load i32, ptr %22, align 4
  %24 = call i32 @setegid(i32 noundef %23) #12
  %25 = icmp slt i32 %24, 0
  br i1 %25, label %26, label %28

26:                                               ; preds = %20
  %27 = call i32 (ptr, ...) @error(ptr noundef @.str.151)
  store i32 -1, ptr %3, align 4
  br label %51

28:                                               ; preds = %20
  %29 = load ptr, ptr %4, align 8
  %30 = getelementptr inbounds nuw %struct.stepd_step_rec_t, ptr %29, i32 0, i32 51
  %31 = load i32, ptr %30, align 8
  %32 = load ptr, ptr %4, align 8
  %33 = getelementptr inbounds nuw %struct.stepd_step_rec_t, ptr %32, i32 0, i32 51
  %34 = load i32, ptr %33, align 8
  %35 = call i32 @setregid(i32 noundef %31, i32 noundef %34) #12
  %36 = icmp slt i32 %35, 0
  br i1 %36, label %37, label %39

37:                                               ; preds = %28
  %38 = call i32 (ptr, ...) @error(ptr noundef @.str.152)
  store i32 -1, ptr %3, align 4
  br label %51

39:                                               ; preds = %28
  %40 = load ptr, ptr %4, align 8
  %41 = getelementptr inbounds nuw %struct.stepd_step_rec_t, ptr %40, i32 0, i32 46
  %42 = load i32, ptr %41, align 8
  %43 = load ptr, ptr %4, align 8
  %44 = getelementptr inbounds nuw %struct.stepd_step_rec_t, ptr %43, i32 0, i32 46
  %45 = load i32, ptr %44, align 8
  %46 = call i32 @setreuid(i32 noundef %42, i32 noundef %45) #12
  %47 = icmp slt i32 %46, 0
  br i1 %47, label %48, label %50

48:                                               ; preds = %39
  %49 = call i32 (ptr, ...) @error(ptr noundef @.str.153)
  store i32 -1, ptr %3, align 4
  br label %51

50:                                               ; preds = %39
  store i32 0, ptr %3, align 4
  br label %51

51:                                               ; preds = %50, %48, %37, %26, %18, %11
  %52 = load i32, ptr %3, align 4
  ret i32 %52
}