; Function Attrs: nounwind uwtable
define internal fastcc range(i32 -1, 1) i32 @_become_user(ptr noundef readonly captures(none) %0, ptr noundef nonnull readonly captures(none) %1) unnamed_addr #0 {
  %3 = tail call i32 @geteuid() #17
  %4 = load i32, ptr %1, align 8
  %5 = icmp eq i32 %3, %4
  br i1 %5, label %25, label %6

6:                                                ; preds = %2
  %7 = tail call i32 @seteuid(i32 noundef %4) #17
  %8 = icmp slt i32 %7, 0
  br i1 %8, label %.sink.split, label %9

9:                                                ; preds = %6
  %10 = getelementptr inbounds nuw i8, ptr %1, i64 4
  %11 = load i32, ptr %10, align 4
  %12 = tail call i32 @setegid(i32 noundef %11) #17
  %13 = icmp slt i32 %12, 0
  br i1 %13, label %.sink.split, label %14

14:                                               ; preds = %9
  %15 = getelementptr inbounds nuw i8, ptr %0, i64 416
  %16 = load i32, ptr %15, align 8
  %17 = tail call i32 @setregid(i32 noundef %16, i32 noundef %16) #17
  %18 = icmp slt i32 %17, 0
  br i1 %18, label %.sink.split, label %19

19:                                               ; preds = %14
  %20 = getelementptr inbounds nuw i8, ptr %0, i64 376
  %21 = load i32, ptr %20, align 8
  %22 = tail call i32 @setreuid(i32 noundef %21, i32 noundef %21) #17
  %23 = icmp slt i32 %22, 0
  br i1 %23, label %.sink.split, label %25

.sink.split:                                      ; preds = %19, %14, %9, %6
  %.str.153.sink = phi ptr [ @.str.150, %6 ], [ @.str.151, %9 ], [ @.str.152, %14 ], [ @.str.153, %19 ]
  %24 = tail call i32 (ptr, ...) @error(ptr noundef nonnull %.str.153.sink) #17
  br label %25

25:                                               ; preds = %.sink.split, %19, %2
  %.0 = phi i32 [ 0, %2 ], [ 0, %19 ], [ -1, %.sink.split ]
  ret i32 %.0
}